target datalayout = "e-m:e-p270:32:32-p271:32:32-p272:64:64-i64:64-i128:128-f80:128-n8:16:32:64-S128"
target triple = "x86_64-pc-linux-gnu"

%struct.ec_group_st = type { ptr, ptr, ptr, ptr, i32, i32, i32, i32, ptr, i64, ptr, [6 x i32], ptr, ptr, i32, ptr, ptr, ptr, ptr, i32, %union.anon, ptr, ptr }
%union.anon = type { ptr }
%struct.ec_point_st = type { ptr, i32, ptr, ptr, ptr, i32 }

@.str = private unnamed_addr constant [32 x i8] c"../openssl/crypto/ec/ecp_smpl.c\00", align 1
@__func__.ossl_ec_GFp_simple_make_affine = private unnamed_addr constant [31 x i8] c"ossl_ec_GFp_simple_make_affine\00", align 1

; Function Attrs: nounwind uwtable
define i32 @ossl_ec_GFp_simple_make_affine(ptr noundef %0, ptr noundef %1, ptr noundef %2) #0 {
  %4 = alloca i32, align 4
  %5 = alloca ptr, align 8
  %6 = alloca ptr, align 8
  %7 = alloca ptr, align 8
  %8 = alloca ptr, align 8
  %9 = alloca ptr, align 8
  %10 = alloca ptr, align 8
  %11 = alloca i32, align 4
  %12 = alloca i32, align 4
  store ptr %0, ptr %5, align 8, !tbaa !3
  store ptr %1, ptr %6, align 8, !tbaa !30
  store ptr %2, ptr %7, align 8, !tbaa !22
  call void @llvm.lifetime.start.p0(i64 8, ptr %8) #3
  store ptr null, ptr %8, align 8, !tbaa !22
  call void @llvm.lifetime.start.p0(i64 8, ptr %9) #3
  call void @llvm.lifetime.start.p0(i64 8, ptr %10) #3
  call void @llvm.lifetime.start.p0(i64 4, ptr %11) #3
  store i32 0, ptr %11, align 4, !tbaa !24
  %13 = load ptr, ptr %6, align 8, !tbaa !30
  %14 = getelementptr inbounds nuw %struct.ec_point_st, ptr %13, i32 0, i32 5
  %15 = load i32, ptr %14, align 8, !tbaa !35
  %16 = icmp ne i32 %15, 0
  br i1 %16, label %22, label %17

17:                                               ; preds = %3
  %18 = load ptr, ptr %5, align 8, !tbaa !3
  %19 = load ptr, ptr %6, align 8, !tbaa !30
  %20 = call i32 @EC_POINT_is_at_infinity(ptr noundef %18, ptr noundef %19)
  %21 = icmp ne i32 %20, 0
  br i1 %21, label %22, label %23

22:                                               ; preds = %17, %3
  store i32 1, ptr %4, align 4
  store i32 1, ptr %12, align 4
  br label %73

23:                                               ; preds = %17
  %24 = load ptr, ptr %7, align 8, !tbaa !22
  %25 = icmp eq ptr %24, null
  br i1 %25, label %26, label %35

26:                                               ; preds = %23
  %27 = load ptr, ptr %5, align 8, !tbaa !3
  %28 = getelementptr inbounds nuw %struct.ec_group_st, ptr %27, i32 0, i32 21
  %29 = load ptr, ptr %28, align 8, !tbaa !25
  %30 = call ptr @BN_CTX_new_ex(ptr noundef %29)
  store ptr %30, ptr %8, align 8, !tbaa !22
  store ptr %30, ptr %7, align 8, !tbaa !22
  %31 = load ptr, ptr %7, align 8, !tbaa !22
  %32 = icmp eq ptr %31, null
  br i1 %32, label %33, label %34

33:                                               ; preds = %26
  store i32 0, ptr %4, align 4
  store i32 1, ptr %12, align 4
  br label %73

34:                                               ; preds = %26
  br label %35

35:                                               ; preds = %34, %23
  %36 = load ptr, ptr %7, align 8, !tbaa !22
  call void @BN_CTX_start(ptr noundef %36)
  %37 = load ptr, ptr %7, align 8, !tbaa !22
  %38 = call ptr @BN_CTX_get(ptr noundef %37)
  store ptr %38, ptr %9, align 8, !tbaa !21
  %39 = load ptr, ptr %7, align 8, !tbaa !22
  %40 = call ptr @BN_CTX_get(ptr noundef %39)
  store ptr %40, ptr %10, align 8, !tbaa !21
  %41 = load ptr, ptr %10, align 8, !tbaa !21
  %42 = icmp eq ptr %41, null
  br i1 %42, label %43, label %44

43:                                               ; preds = %35
  br label %69

44:                                               ; preds = %35
  %45 = load ptr, ptr %5, align 8, !tbaa !3
  %46 = load ptr, ptr %6, align 8, !tbaa !30
  %47 = load ptr, ptr %9, align 8, !tbaa !21
  %48 = load ptr, ptr %10, align 8, !tbaa !21
  %49 = load ptr, ptr %7, align 8, !tbaa !22
  %50 = call i32 @EC_POINT_get_affine_coordinates(ptr noundef %45, ptr noundef %46, ptr noundef %47, ptr noundef %48, ptr noundef %49)
  %51 = icmp ne i32 %50, 0
  br i1 %51, label %53, label %52

52:                                               ; preds = %44
  br label %69

53:                                               ; preds = %44
  %54 = load ptr, ptr %5, align 8, !tbaa !3
  %55 = load ptr, ptr %6, align 8, !tbaa !30
  %56 = load ptr, ptr %9, align 8, !tbaa !21
  %57 = load ptr, ptr %10, align 8, !tbaa !21
  %58 = load ptr, ptr %7, align 8, !tbaa !22
  %59 = call i32 @EC_POINT_set_affine_coordinates(ptr noundef %54, ptr noundef %55, ptr noundef %56, ptr noundef %57, ptr noundef %58)
  %60 = icmp ne i32 %59, 0
  br i1 %60, label %62, label %61

61:                                               ; preds = %53
  br label %69

62:                                               ; preds = %53
  %63 = load ptr, ptr %6, align 8, !tbaa !30
  %64 = getelementptr inbounds nuw %struct.ec_point_st, ptr %63, i32 0, i32 5
  %65 = load i32, ptr %64, align 8, !tbaa !35
  %66 = icmp ne i32 %65, 0
  br i1 %66, label %68, label %67

67:                                               ; preds = %62
  call void @ERR_new()
  call void @ERR_set_debug(ptr noundef @.str, i32 noundef 1194, ptr noundef @__func__.ossl_ec_GFp_simple_make_affine)
  call void (i32, i32, ptr, ...) @ERR_set_error(i32 noundef 16, i32 noundef 786691, ptr noundef null)
  br label %69

68:                                               ; preds = %62
  store i32 1, ptr %11, align 4, !tbaa !24
  br label %69

69:                                               ; preds = %68, %67, %61, %52, %43
  %70 = load ptr, ptr %7, align 8, !tbaa !22
  call void @BN_CTX_end(ptr noundef %70)
  %71 = load ptr, ptr %8, align 8, !tbaa !22
  call void @BN_CTX_free(ptr noundef %71)
  %72 = load i32, ptr %11, align 4, !tbaa !24
  store i32 %72, ptr %4, align 4
  store i32 1, ptr %12, align 4
  br label %73

73:                                               ; preds = %69, %33, %22
  call void @llvm.lifetime.end.p0(i64 4, ptr %11) #3
  call void @llvm.lifetime.end.p0(i64 8, ptr %10) #3
  call void @llvm.lifetime.end.p0(i64 8, ptr %9) #3
  call void @llvm.lifetime.end.p0(i64 8, ptr %8) #3
  %74 = load i32, ptr %4, align 4
  ret i32 %74
}