; Function Attrs: nounwind uwtable
define range(i32 0, 2) i32 @ossl_ec_GFp_simple_make_affine(ptr noundef %0, ptr noundef %1, ptr noundef %2) #1 {
  %4 = getelementptr inbounds nuw i8, ptr %1, i64 40
  %5 = load i32, ptr %4, align 8, !tbaa !28
  %.not = icmp eq i32 %5, 0
  br i1 %.not, label %6, label %27

6:                                                ; preds = %3
  %7 = tail call i32 @EC_POINT_is_at_infinity(ptr noundef %0, ptr noundef nonnull %1) #4
  %.not30 = icmp eq i32 %7, 0
  br i1 %.not30, label %8, label %27

8:                                                ; preds = %6
  %9 = icmp eq ptr %2, null
  br i1 %9, label %10, label %15

10:                                               ; preds = %8
  %11 = getelementptr inbounds nuw i8, ptr %0, i64 168
  %12 = load ptr, ptr %11, align 8, !tbaa !19
  %13 = tail call ptr @BN_CTX_new_ex(ptr noundef %12) #4
  %14 = icmp eq ptr %13, null
  br i1 %14, label %27, label %15

15:                                               ; preds = %10, %8
  %.026 = phi ptr [ %13, %10 ], [ null, %8 ]
  %.025 = phi ptr [ %13, %10 ], [ %2, %8 ]
  tail call void @BN_CTX_start(ptr noundef nonnull %.025) #4
  %16 = tail call ptr @BN_CTX_get(ptr noundef nonnull %.025) #4
  %17 = tail call ptr @BN_CTX_get(ptr noundef nonnull %.025) #4
  %18 = icmp eq ptr %17, null
  br i1 %18, label %26, label %19

19:                                               ; preds = %15
  %20 = tail call i32 @EC_POINT_get_affine_coordinates(ptr noundef %0, ptr noundef nonnull %1, ptr noundef %16, ptr noundef nonnull %17, ptr noundef nonnull %.025) #4
  %.not31 = icmp eq i32 %20, 0
  br i1 %.not31, label %26, label %21

21:                                               ; preds = %19
  %22 = tail call i32 @EC_POINT_set_affine_coordinates(ptr noundef %0, ptr noundef nonnull %1, ptr noundef %16, ptr noundef nonnull %17, ptr noundef nonnull %.025) #4
  %.not32 = icmp eq i32 %22, 0
  br i1 %.not32, label %26, label %23

23:                                               ; preds = %21
  %24 = load i32, ptr %4, align 8, !tbaa !28
  %.not33 = icmp eq i32 %24, 0
  br i1 %.not33, label %25, label %26

25:                                               ; preds = %23
  tail call void @ERR_new() #4
  tail call void @ERR_set_debug(ptr noundef nonnull @.str, i32 noundef 1194, ptr noundef nonnull @__func__.ossl_ec_GFp_simple_make_affine) #4
  tail call void (i32, i32, ptr, ...) @ERR_set_error(i32 noundef 16, i32 noundef 786691, ptr noundef null) #4
  br label %26

26:                                               ; preds = %23, %21, %19, %15, %25
  %.0 = phi i32 [ 0, %15 ], [ 0, %25 ], [ 0, %21 ], [ 0, %19 ], [ 1, %23 ]
  tail call void @BN_CTX_end(ptr noundef nonnull %.025) #4
  tail call void @BN_CTX_free(ptr noundef %.026) #4
  br label %27

27:                                               ; preds = %10, %3, %6, %26
  %.024 = phi i32 [ %.0, %26 ], [ 1, %6 ], [ 1, %3 ], [ 0, %10 ]
  ret i32 %.024
}